target datalayout = "e-m:e-p270:32:32-p271:32:32-p272:64:64-i64:64-i128:128-f80:128-n8:16:32:64-S128"
target triple = "x86_64-pc-linux-gnu"

%"class.std::shared_ptr" = type { %"class.std::__shared_ptr" }
%"class.std::__shared_ptr" = type { ptr, %"class.std::__shared_count" }
%"class.std::__shared_count" = type { ptr }
%"class.open_spiel::kuhn_poker::KuhnState" = type { %"class.open_spiel::State.base", i32, %"class.std::vector.9", i32, i32, %"class.std::vector.9" }
%"class.open_spiel::State.base" = type <{ ptr, %"class.std::shared_ptr", i32, i32, %"class.std::vector", i32 }>
%"class.std::vector" = type { %"struct.std::_Vector_base" }
%"struct.std::_Vector_base" = type { %"struct.std::_Vector_base<open_spiel::State::PlayerAction, std::allocator<open_spiel::State::PlayerAction>>::_Vector_impl" }
%"struct.std::_Vector_base<open_spiel::State::PlayerAction, std::allocator<open_spiel::State::PlayerAction>>::_Vector_impl" = type { %"struct.std::_Vector_base<open_spiel::State::PlayerAction, std::allocator<open_spiel::State::PlayerAction>>::_Vector_impl_data" }
%"struct.std::_Vector_base<open_spiel::State::PlayerAction, std::allocator<open_spiel::State::PlayerAction>>::_Vector_impl_data" = type { ptr, ptr, ptr }
%"class.std::vector.9" = type { %"struct.std::_Vector_base.10" }
%"struct.std::_Vector_base.10" = type { %"struct.std::_Vector_base<int, std::allocator<int>>::_Vector_impl" }
%"struct.std::_Vector_base<int, std::allocator<int>>::_Vector_impl" = type { %"struct.std::_Vector_base<int, std::allocator<int>>::_Vector_impl_data" }
%"struct.std::_Vector_base<int, std::allocator<int>>::_Vector_impl_data" = type { ptr, ptr, ptr }
%"class.open_spiel::State" = type <{ ptr, %"class.std::shared_ptr", i32, i32, %"class.std::vector", i32, [4 x i8] }>
%"struct.open_spiel::State::PlayerAction" = type { i32, i64 }

; Function Attrs: mustprogress nounwind uwtable
define linkonce_odr noundef nonnull align 8 dereferenceable(16) ptr @_ZNKSt6vectorIN10open_spiel5State12PlayerActionESaIS2_EEixEm(ptr noundef nonnull align 8 dereferenceable(24) %0, i64 noundef %1) #5 comdat align 2 {
  %3 = alloca ptr, align 8
  %4 = alloca i64, align 8
  store ptr %0, ptr %3, align 8
  store i64 %1, ptr %4, align 8
  %5 = load ptr, ptr %3, align 8
  %6 = getelementptr inbounds nuw %"struct.std::_Vector_base", ptr %5, i32 0, i32 0
  %7 = getelementptr inbounds nuw %"struct.std::_Vector_base<open_spiel::State::PlayerAction, std::allocator<open_spiel::State::PlayerAction>>::_Vector_impl_data", ptr %6, i32 0, i32 0
  %8 = load ptr, ptr %7, align 8
  %9 = load i64, ptr %4, align 8
  %10 = getelementptr inbounds %"struct.open_spiel::State::PlayerAction", ptr %8, i64 %9
  ret ptr %10
}

; Function Attrs: mustprogress nounwind uwtable
define noundef zeroext i1 @_ZNK10open_spiel10kuhn_poker9KuhnState6DidBetEi(ptr noundef nonnull align 8 dereferenceable(120) %0, i32 noundef %1) #5 align 2 {
  %3 = alloca i1, align 1
  %4 = alloca ptr, align 8
  %5 = alloca i32, align 4
  store ptr %0, ptr %4, align 8
  store i32 %1, ptr %5, align 4
  %6 = load ptr, ptr %4, align 8
  %7 = getelementptr inbounds nuw %"class.open_spiel::kuhn_poker::KuhnState", ptr %6, i32 0, i32 1
  %8 = load i32, ptr %7, align 4
  %9 = icmp eq i32 %8, -3
  br i1 %9, label %10, label %11

10:                                               ; preds = %2
  store i1 false, ptr %3, align 1
  br label %45

11:                                               ; preds = %2
  %12 = load i32, ptr %5, align 4
  %13 = getelementptr inbounds nuw %"class.open_spiel::kuhn_poker::KuhnState", ptr %6, i32 0, i32 1
  %14 = load i32, ptr %13, align 4
  %15 = icmp eq i32 %12, %14
  br i1 %15, label %16, label %17

16:                                               ; preds = %11
  store i1 true, ptr %3, align 1
  br label %45

17:                                               ; preds = %11
  %18 = load i32, ptr %5, align 4
  %19 = getelementptr inbounds nuw %"class.open_spiel::kuhn_poker::KuhnState", ptr %6, i32 0, i32 1
  %20 = load i32, ptr %19, align 4
  %21 = icmp sgt i32 %18, %20
  br i1 %21, label %22, label %33

22:                                               ; preds = %17
  %23 = getelementptr inbounds nuw %"class.open_spiel::State", ptr %6, i32 0, i32 4
  %24 = getelementptr inbounds nuw %"class.open_spiel::State", ptr %6, i32 0, i32 3
  %25 = load i32, ptr %24, align 4
  %26 = load i32, ptr %5, align 4
  %27 = add nsw i32 %25, %26
  %28 = sext i32 %27 to i64
  %29 = call noundef nonnull align 8 dereferenceable(16) ptr @_ZNKSt6vectorIN10open_spiel5State12PlayerActionESaIS2_EEixEm(ptr noundef nonnull align 8 dereferenceable(24) %23, i64 noundef %28) #3
  %30 = getelementptr inbounds nuw %"struct.open_spiel::State::PlayerAction", ptr %29, i32 0, i32 1
  %31 = load i64, ptr %30, align 8
  %32 = icmp eq i64 %31, 1
  store i1 %32, ptr %3, align 1
  br label %45

33:                                               ; preds = %17
  %34 = getelementptr inbounds nuw %"class.open_spiel::State", ptr %6, i32 0, i32 4
  %35 = getelementptr inbounds nuw %"class.open_spiel::State", ptr %6, i32 0, i32 3
  %36 = load i32, ptr %35, align 4
  %37 = mul nsw i32 %36, 2
  %38 = load i32, ptr %5, align 4
  %39 = add nsw i32 %37, %38
  %40 = sext i32 %39 to i64
  %41 = call noundef nonnull align 8 dereferenceable(16) ptr @_ZNKSt6vectorIN10open_spiel5State12PlayerActionESaIS2_EEixEm(ptr noundef nonnull align 8 dereferenceable(24) %34, i64 noundef %40) #3
  %42 = getelementptr inbounds nuw %"struct.open_spiel::State::PlayerAction", ptr %41, i32 0, i32 1
  %43 = load i64, ptr %42, align 8
  %44 = icmp eq i64 %43, 1
  store i1 %44, ptr %3, align 1
  br label %45

45:                                               ; preds = %33, %22, %16, %10
  %46 = load i1, ptr %3, align 1
  ret i1 %46
}