; Function Attrs: mustprogress nofree norecurse nosync nounwind willreturn memory(read, inaccessiblemem: none) uwtable
define noundef zeroext i1 @_ZNK10open_spiel10kuhn_poker9KuhnState6DidBetEi(ptr nocapture noundef nonnull readonly align 8 dereferenceable(120) %0, i32 noundef %1) local_unnamed_addr #5 align 2 {
  %3 = getelementptr inbounds nuw i8, ptr %0, i64 60
  %4 = load i32, ptr %3, align 4
  %5 = icmp eq i32 %4, -3
  br i1 %5, label %19, label %6

6:                                                ; preds = %2
  %7 = icmp eq i32 %1, %4
  br i1 %7, label %19, label %.sink.split

.sink.split:                                      ; preds = %6
  %8 = icmp sle i32 %1, %4
  %9 = getelementptr inbounds nuw i8, ptr %0, i64 32
  %10 = getelementptr inbounds nuw i8, ptr %0, i64 28
  %11 = load i32, ptr %10, align 4
  %12 = zext i1 %8 to i32
  %.sink9 = shl nsw i32 %11, %12
  %13 = add nsw i32 %.sink9, %1
  %14 = sext i32 %13 to i64
  %15 = load ptr, ptr %9, align 8
  %16 = getelementptr inbounds %"struct.open_spiel::State::PlayerAction", ptr %15, i64 %14, i32 1
  %17 = load i64, ptr %16, align 8
  %18 = icmp eq i64 %17, 1
  br label %19

19:                                               ; preds = %.sink.split, %6, %2
  %.0 = phi i1 [ false, %2 ], [ true, %6 ], [ %18, %.sink.split ]
  ret i1 %.0
}